target datalayout = "e-m:e-p270:32:32-p271:32:32-p272:64:64-i64:64-i128:128-f80:128-n8:16:32:64-S128"
target triple = "x86_64-pc-linux-gnu"

%struct.index_state = type { ptr, i32, i32, i32, i32, ptr, ptr, ptr, %struct.cache_time, i8, i32, %struct.hashmap, %struct.hashmap, %struct.object_id, ptr, ptr, ptr, ptr, ptr, ptr, ptr }
%struct.cache_time = type { i32, i32 }
%struct.hashmap = type { ptr, ptr, ptr, i32, i32, i32, i32, i8 }
%struct.object_id = type { [32 x i8], i32 }
%struct.cache_entry = type { %struct.hashmap_entry, %struct.stat_data, i32, i32, i32, i32, i32, %struct.object_id, [0 x i8] }
%struct.hashmap_entry = type { ptr, i32 }
%struct.stat_data = type { %struct.cache_time, %struct.cache_time, i32, i32, i32, i32, i32 }

@the_repository = external global ptr, align 8

; Function Attrs: nounwind uwtable
define dso_local i32 @index_name_pos(ptr noundef %0, ptr noundef %1, i32 noundef %2) #0 {
  %4 = alloca ptr, align 8
  %5 = alloca ptr, align 8
  %6 = alloca i32, align 4
  store ptr %0, ptr %4, align 8, !tbaa !4
  store ptr %1, ptr %5, align 8, !tbaa !11
  store i32 %2, ptr %6, align 4, !tbaa !9
  %7 = load ptr, ptr %4, align 8, !tbaa !4
  %8 = load ptr, ptr %5, align 8, !tbaa !11
  %9 = load i32, ptr %6, align 4, !tbaa !9
  %10 = call i32 @index_name_stage_pos(ptr noundef %7, ptr noundef %8, i32 noundef %9, i32 noundef 0, i32 noundef 1)
  ret i32 %10
}

; Function Attrs: nounwind uwtable
define dso_local ptr @read_blob_data_from_index(ptr noundef %0, ptr noundef %1, ptr noundef %2) #0 {
  %4 = alloca ptr, align 8
  %5 = alloca ptr, align 8
  %6 = alloca ptr, align 8
  %7 = alloca ptr, align 8
  %8 = alloca i32, align 4
  %9 = alloca i32, align 4
  %10 = alloca i64, align 8
  %11 = alloca i32, align 4
  %12 = alloca ptr, align 8
  %13 = alloca i32, align 4
  %14 = alloca i32, align 4
  store ptr %0, ptr %5, align 8, !tbaa !4
  store ptr %1, ptr %6, align 8, !tbaa !11
  store ptr %2, ptr %7, align 8, !tbaa !82
  call void @llvm.lifetime.start.p0(i64 4, ptr %8) #12
  call void @llvm.lifetime.start.p0(i64 4, ptr %9) #12
  call void @llvm.lifetime.start.p0(i64 8, ptr %10) #12
  call void @llvm.lifetime.start.p0(i64 4, ptr %11) #12
  call void @llvm.lifetime.start.p0(i64 8, ptr %12) #12
  %15 = load ptr, ptr %6, align 8, !tbaa !11
  %16 = call i64 @strlen(ptr noundef %15) #13
  %17 = trunc i64 %16 to i32
  store i32 %17, ptr %9, align 4, !tbaa !9
  %18 = load ptr, ptr %5, align 8, !tbaa !4
  %19 = load ptr, ptr %6, align 8, !tbaa !11
  %20 = load i32, ptr %9, align 4, !tbaa !9
  %21 = call i32 @index_name_pos(ptr noundef %18, ptr noundef %19, i32 noundef %20)
  store i32 %21, ptr %8, align 4, !tbaa !9
  %22 = load i32, ptr %8, align 4, !tbaa !9
  %23 = icmp slt i32 %22, 0
  br i1 %23, label %24, label %73

24:                                               ; preds = %3
  call void @llvm.lifetime.start.p0(i64 4, ptr %13) #12
  %25 = load i32, ptr %8, align 4, !tbaa !9
  %26 = sub nsw i32 0, %25
  %27 = sub nsw i32 %26, 1
  store i32 %27, ptr %13, align 4, !tbaa !9
  br label %28

28:                                               ; preds = %69, %24
  %29 = load i32, ptr %8, align 4, !tbaa !9
  %30 = icmp slt i32 %29, 0
  br i1 %30, label %31, label %51

31:                                               ; preds = %28
  %32 = load i32, ptr %13, align 4, !tbaa !9
  %33 = load ptr, ptr %5, align 8, !tbaa !4
  %34 = getelementptr inbounds nuw %struct.index_state, ptr %33, i32 0, i32 2
  %35 = load i32, ptr %34, align 4, !tbaa !34
  %36 = icmp ult i32 %32, %35
  br i1 %36, label %37, label %51

37:                                               ; preds = %31
  %38 = load ptr, ptr %5, align 8, !tbaa !4
  %39 = getelementptr inbounds nuw %struct.index_state, ptr %38, i32 0, i32 0
  %40 = load ptr, ptr %39, align 8, !tbaa !13
  %41 = load i32, ptr %13, align 4, !tbaa !9
  %42 = sext i32 %41 to i64
  %43 = getelementptr inbounds ptr, ptr %40, i64 %42
  %44 = load ptr, ptr %43, align 8, !tbaa !29
  %45 = getelementptr inbounds nuw %struct.cache_entry, ptr %44, i32 0, i32 8
  %46 = getelementptr inbounds [0 x i8], ptr %45, i64 0, i64 0
  %47 = load ptr, ptr %6, align 8, !tbaa !11
  %48 = call i32 @strcmp(ptr noundef %46, ptr noundef %47) #13
  %49 = icmp ne i32 %48, 0
  %50 = xor i1 %49, true
  br label %51

51:                                               ; preds = %37, %31, %28
  %52 = phi i1 [ false, %31 ], [ false, %28 ], [ %50, %37 ]
  br i1 %52, label %53, label %72

53:                                               ; preds = %51
  %54 = load ptr, ptr %5, align 8, !tbaa !4
  %55 = getelementptr inbounds nuw %struct.index_state, ptr %54, i32 0, i32 0
  %56 = load ptr, ptr %55, align 8, !tbaa !13
  %57 = load i32, ptr %13, align 4, !tbaa !9
  %58 = sext i32 %57 to i64
  %59 = getelementptr inbounds ptr, ptr %56, i64 %58
  %60 = load ptr, ptr %59, align 8, !tbaa !29
  %61 = getelementptr inbounds nuw %struct.cache_entry, ptr %60, i32 0, i32 3
  %62 = load i32, ptr %61, align 8, !tbaa !9
  %63 = and i32 12288, %62
  %64 = lshr i32 %63, 12
  %65 = icmp eq i32 %64, 2
  br i1 %65, label %66, label %68

66:                                               ; preds = %53
  %67 = load i32, ptr %13, align 4, !tbaa !9
  store i32 %67, ptr %8, align 4, !tbaa !9
  br label %68

68:                                               ; preds = %66, %53
  br label %69

69:                                               ; preds = %68
  %70 = load i32, ptr %13, align 4, !tbaa !9
  %71 = add nsw i32 %70, 1
  store i32 %71, ptr %13, align 4, !tbaa !9
  br label %28, !llvm.loop !206

72:                                               ; preds = %51
  call void @llvm.lifetime.end.p0(i64 4, ptr %13) #12
  br label %73

73:                                               ; preds = %72, %3
  %74 = load i32, ptr %8, align 4, !tbaa !9
  %75 = icmp slt i32 %74, 0
  br i1 %75, label %76, label %77

76:                                               ; preds = %73
  store ptr null, ptr %4, align 8
  store i32 1, ptr %14, align 4
  br label %103

77:                                               ; preds = %73
  %78 = load ptr, ptr @the_repository, align 8, !tbaa !48
  %79 = load ptr, ptr %5, align 8, !tbaa !4
  %80 = getelementptr inbounds nuw %struct.index_state, ptr %79, i32 0, i32 0
  %81 = load ptr, ptr %80, align 8, !tbaa !13
  %82 = load i32, ptr %8, align 4, !tbaa !9
  %83 = sext i32 %82 to i64
  %84 = getelementptr inbounds ptr, ptr %81, i64 %83
  %85 = load ptr, ptr %84, align 8, !tbaa !29
  %86 = getelementptr inbounds nuw %struct.cache_entry, ptr %85, i32 0, i32 7
  %87 = call ptr @repo_read_object_file(ptr noundef %78, ptr noundef %86, ptr noundef %11, ptr noundef %10)
  store ptr %87, ptr %12, align 8, !tbaa !64
  %88 = load ptr, ptr %12, align 8, !tbaa !64
  %89 = icmp ne ptr %88, null
  br i1 %89, label %90, label %93

90:                                               ; preds = %77
  %91 = load i32, ptr %11, align 4, !tbaa !9
  %92 = icmp ne i32 %91, 3
  br i1 %92, label %93, label %95

93:                                               ; preds = %90, %77
  %94 = load ptr, ptr %12, align 8, !tbaa !64
  call void @free(ptr noundef %94) #12
  store ptr null, ptr %4, align 8
  store i32 1, ptr %14, align 4
  br label %103

95:                                               ; preds = %90
  %96 = load ptr, ptr %7, align 8, !tbaa !82
  %97 = icmp ne ptr %96, null
  br i1 %97, label %98, label %101

98:                                               ; preds = %95
  %99 = load i64, ptr %10, align 8, !tbaa !31
  %100 = load ptr, ptr %7, align 8, !tbaa !82
  store i64 %99, ptr %100, align 8, !tbaa !31
  br label %101

101:                                              ; preds = %98, %95
  %102 = load ptr, ptr %12, align 8, !tbaa !64
  store ptr %102, ptr %4, align 8
  store i32 1, ptr %14, align 4
  br label %103

103:                                              ; preds = %101, %93, %76
  call void @llvm.lifetime.end.p0(i64 8, ptr %12) #12
  call void @llvm.lifetime.end.p0(i64 4, ptr %11) #12
  call void @llvm.lifetime.end.p0(i64 8, ptr %10) #12
  call void @llvm.lifetime.end.p0(i64 4, ptr %9) #12
  call void @llvm.lifetime.end.p0(i64 4, ptr %8) #12
  %104 = load ptr, ptr %4, align 8
  ret ptr %104
}