; Function Attrs: nounwind uwtable
define dso_local ptr @read_blob_data_from_index(ptr noundef %0, ptr noundef %1, ptr noundef writeonly %2) local_unnamed_addr #0 {
  %4 = alloca i64, align 8
  %5 = alloca i32, align 4
  call void @llvm.lifetime.start.p0(i64 8, ptr nonnull %4) #30
  call void @llvm.lifetime.start.p0(i64 4, ptr nonnull %5) #30
  %6 = tail call i64 @strlen(ptr noundef nonnull dereferenceable(1) %1) #29
  %7 = trunc i64 %6 to i32
  %8 = tail call fastcc i32 @index_name_stage_pos(ptr noundef %0, ptr noundef nonnull %1, i32 noundef %7, i32 noundef 0, i32 noundef 1)
  %9 = icmp slt i32 %8, 0
  br i1 %9, label %10, label %..critedge_crit_edge

..critedge_crit_edge:                             ; preds = %3
  %.pre = load ptr, ptr %0, align 8, !tbaa !4
  br label %.critedge

10:                                               ; preds = %3
  %11 = xor i32 %8, -1
  %12 = getelementptr inbounds nuw i8, ptr %0, i64 12
  %13 = load i32, ptr %12, align 4, !tbaa !34
  %14 = zext nneg i32 %11 to i64
  %umax = tail call i32 @llvm.umax.i32(i32 %13, i32 %11)
  %wide.trip.count = zext i32 %umax to i64
  br label %15

15:                                               ; preds = %10, %select.unfold
  %indvars.iv = phi i64 [ %14, %10 ], [ %indvars.iv.next, %select.unfold ]
  %.134 = phi i32 [ %8, %10 ], [ %spec.select, %select.unfold ]
  %exitcond.not = icmp eq i64 %indvars.iv, %wide.trip.count
  br i1 %exitcond.not, label %.critedge.thread, label %16

16:                                               ; preds = %15
  %17 = load ptr, ptr %0, align 8, !tbaa !4
  %18 = getelementptr inbounds nuw ptr, ptr %17, i64 %indvars.iv
  %19 = load ptr, ptr %18, align 8, !tbaa !25
  %20 = getelementptr inbounds nuw i8, ptr %19, i64 108
  %21 = tail call i32 @strcmp(ptr noundef nonnull dereferenceable(1) %20, ptr noundef nonnull dereferenceable(1) %1) #29
  %.not = icmp eq i32 %21, 0
  br i1 %.not, label %select.unfold, label %.critedge.thread

select.unfold:                                    ; preds = %16
  %22 = getelementptr inbounds nuw i8, ptr %19, i64 56
  %23 = load i32, ptr %22, align 8, !tbaa !32
  %24 = and i32 %23, 12288
  %25 = icmp eq i32 %24, 8192
  %indvars.iv.next = add nuw nsw i64 %indvars.iv, 1
  %26 = trunc nuw i64 %indvars.iv to i32
  %spec.select = select i1 %25, i32 %26, i32 %.134
  %27 = icmp slt i32 %spec.select, 0
  br i1 %27, label %15, label %.critedge

.critedge:                                        ; preds = %select.unfold, %..critedge_crit_edge
  %28 = phi ptr [ %.pre, %..critedge_crit_edge ], [ %17, %select.unfold ]
  %.026 = phi i32 [ %8, %..critedge_crit_edge ], [ %spec.select, %select.unfold ]
  %29 = load ptr, ptr @the_repository, align 8, !tbaa !52
  %30 = zext nneg i32 %.026 to i64
  %31 = getelementptr inbounds nuw ptr, ptr %28, i64 %30
  %32 = load ptr, ptr %31, align 8, !tbaa !25
  %33 = getelementptr inbounds nuw i8, ptr %32, i64 72
  %34 = call ptr @repo_read_object_file(ptr noundef %29, ptr noundef nonnull %33, ptr noundef nonnull %5, ptr noundef nonnull %4) #30
  %35 = icmp eq ptr %34, null
  %36 = load i32, ptr %5, align 4
  %37 = icmp ne i32 %36, 3
  %or.cond = select i1 %35, i1 true, i1 %37
  br i1 %or.cond, label %38, label %39

38:                                               ; preds = %.critedge
  call void @free(ptr noundef %34) #30
  br label %.critedge.thread

39:                                               ; preds = %.critedge
  %.not31 = icmp eq ptr %2, null
  br i1 %.not31, label %.critedge.thread, label %40

40:                                               ; preds = %39
  %41 = load i64, ptr %4, align 8, !tbaa !72
  store i64 %41, ptr %2, align 8, !tbaa !72
  br label %.critedge.thread

.critedge.thread:                                 ; preds = %16, %15, %39, %40, %38
  %.025 = phi ptr [ null, %38 ], [ %34, %40 ], [ %34, %39 ], [ null, %15 ], [ null, %16 ]
  call void @llvm.lifetime.end.p0(i64 4, ptr nonnull %5) #30
  call void @llvm.lifetime.end.p0(i64 8, ptr nonnull %4) #30
  ret ptr %.025
}